target datalayout = "e-m:e-p270:32:32-p271:32:32-p272:64:64-i64:64-i128:128-f80:128-n8:16:32:64-S128"
target triple = "x86_64-pc-linux-gnu"

%"class.cv::ximgproc::EstimateCovariance" = type { i32, i32, i32, i32, %"class.std::vector" }
%"class.std::vector" = type { %"struct.std::_Vector_base" }
%"struct.std::_Vector_base" = type { %"struct.std::_Vector_base<cv::ximgproc::EstimateCovariance::Combination, std::allocator<cv::ximgproc::EstimateCovariance::Combination>>::_Vector_impl" }
%"struct.std::_Vector_base<cv::ximgproc::EstimateCovariance::Combination, std::allocator<cv::ximgproc::EstimateCovariance::Combination>>::_Vector_impl" = type { %"struct.std::_Vector_base<cv::ximgproc::EstimateCovariance::Combination, std::allocator<cv::ximgproc::EstimateCovariance::Combination>>::_Vector_impl_data" }
%"struct.std::_Vector_base<cv::ximgproc::EstimateCovariance::Combination, std::allocator<cv::ximgproc::EstimateCovariance::Combination>>::_Vector_impl_data" = type { ptr, ptr, ptr }
%"struct.cv::ximgproc::EstimateCovariance::Combination" = type { i32, i32, i32, i32, i32, i32 }

; Function Attrs: mustprogress nounwind uwtable
define linkonce_odr hidden noundef nonnull align 4 dereferenceable(24) ptr @_ZNSt6vectorIN2cv8ximgproc18EstimateCovariance11CombinationESaIS3_EEixEm(ptr noundef nonnull align 8 dereferenceable(24) %0, i64 noundef %1) #4 comdat align 2 {
  %3 = alloca ptr, align 8
  %4 = alloca i64, align 8
  store ptr %0, ptr %3, align 8, !tbaa !17
  store i64 %1, ptr %4, align 8, !tbaa !21
  %5 = load ptr, ptr %3, align 8
  %6 = getelementptr inbounds nuw %"struct.std::_Vector_base", ptr %5, i32 0, i32 0
  %7 = getelementptr inbounds nuw %"struct.std::_Vector_base<cv::ximgproc::EstimateCovariance::Combination, std::allocator<cv::ximgproc::EstimateCovariance::Combination>>::_Vector_impl_data", ptr %6, i32 0, i32 0
  %8 = load ptr, ptr %7, align 8, !tbaa !19
  %9 = load i64, ptr %4, align 8, !tbaa !21
  %10 = getelementptr inbounds nuw %"struct.cv::ximgproc::EstimateCovariance::Combination", ptr %8, i64 %9
  ret ptr %10
}

; Function Attrs: mustprogress nounwind uwtable
define hidden void @_ZN2cv8ximgproc18EstimateCovariance22buildCombinationsTableEv(ptr noundef nonnull align 8 dereferenceable(40) %0) #4 align 2 {
  %2 = alloca ptr, align 8
  %3 = alloca i32, align 4
  %4 = alloca i32, align 4
  %5 = alloca i32, align 4
  %6 = alloca %"struct.cv::ximgproc::EstimateCovariance::Combination", align 4
  store ptr %0, ptr %2, align 8, !tbaa !3
  %7 = load ptr, ptr %2, align 8
  call void @llvm.lifetime.start.p0(i64 4, ptr %3) #3
  call void @llvm.lifetime.start.p0(i64 4, ptr %4) #3
  call void @llvm.lifetime.start.p0(i64 4, ptr %5) #3
  store i32 0, ptr %5, align 4, !tbaa !8
  call void @llvm.lifetime.start.p0(i64 24, ptr %6) #3
  store i32 0, ptr %4, align 4, !tbaa !8
  br label %8

8:                                                ; preds = %38, %1
  %9 = load i32, ptr %4, align 4, !tbaa !8
  %10 = getelementptr inbounds nuw %"class.cv::ximgproc::EstimateCovariance", ptr %7, i32 0, i32 3
  %11 = load i32, ptr %10, align 4, !tbaa !16
  %12 = icmp slt i32 %9, %11
  br i1 %12, label %13, label %41

13:                                               ; preds = %8
  store i32 0, ptr %3, align 4, !tbaa !8
  br label %14

14:                                               ; preds = %34, %13
  %15 = load i32, ptr %3, align 4, !tbaa !8
  %16 = getelementptr inbounds nuw %"class.cv::ximgproc::EstimateCovariance", ptr %7, i32 0, i32 2
  %17 = load i32, ptr %16, align 8, !tbaa !10
  %18 = icmp slt i32 %15, %17
  br i1 %18, label %19, label %37

19:                                               ; preds = %14
  %20 = getelementptr inbounds nuw %"struct.cv::ximgproc::EstimateCovariance::Combination", ptr %6, i32 0, i32 0
  store i32 0, ptr %20, align 4, !tbaa !23
  %21 = getelementptr inbounds nuw %"struct.cv::ximgproc::EstimateCovariance::Combination", ptr %6, i32 0, i32 1
  store i32 0, ptr %21, align 4, !tbaa !25
  %22 = load i32, ptr %3, align 4, !tbaa !8
  %23 = getelementptr inbounds nuw %"struct.cv::ximgproc::EstimateCovariance::Combination", ptr %6, i32 0, i32 2
  store i32 %22, ptr %23, align 4, !tbaa !26
  %24 = load i32, ptr %4, align 4, !tbaa !8
  %25 = getelementptr inbounds nuw %"struct.cv::ximgproc::EstimateCovariance::Combination", ptr %6, i32 0, i32 3
  store i32 %24, ptr %25, align 4, !tbaa !27
  %26 = getelementptr inbounds nuw %"struct.cv::ximgproc::EstimateCovariance::Combination", ptr %6, i32 0, i32 4
  store i32 0, ptr %26, align 4, !tbaa !28
  %27 = load i32, ptr %5, align 4, !tbaa !8
  %28 = getelementptr inbounds nuw %"struct.cv::ximgproc::EstimateCovariance::Combination", ptr %6, i32 0, i32 5
  store i32 %27, ptr %28, align 4, !tbaa !29
  %29 = getelementptr inbounds nuw %"class.cv::ximgproc::EstimateCovariance", ptr %7, i32 0, i32 4
  %30 = load i32, ptr %5, align 4, !tbaa !8
  %31 = add nsw i32 %30, 1
  store i32 %31, ptr %5, align 4, !tbaa !8
  %32 = sext i32 %30 to i64
  %33 = call noundef nonnull align 4 dereferenceable(24) ptr @_ZNSt6vectorIN2cv8ximgproc18EstimateCovariance11CombinationESaIS3_EEixEm(ptr noundef nonnull align 8 dereferenceable(24) %29, i64 noundef %32) #3
  call void @llvm.memcpy.p0.p0.i64(ptr align 4 %33, ptr align 4 %6, i64 24, i1 false)
  br label %34

34:                                               ; preds = %19
  %35 = load i32, ptr %3, align 4, !tbaa !8
  %36 = add nsw i32 %35, 1
  store i32 %36, ptr %3, align 4, !tbaa !8
  br label %14, !llvm.loop !30

37:                                               ; preds = %14
  br label %38

38:                                               ; preds = %37
  %39 = load i32, ptr %4, align 4, !tbaa !8
  %40 = add nsw i32 %39, 1
  store i32 %40, ptr %4, align 4, !tbaa !8
  br label %8, !llvm.loop !32

41:                                               ; preds = %8
  store i32 1, ptr %3, align 4, !tbaa !8
  br label %42

42:                                               ; preds = %72, %41
  %43 = load i32, ptr %3, align 4, !tbaa !8
  %44 = getelementptr inbounds nuw %"class.cv::ximgproc::EstimateCovariance", ptr %7, i32 0, i32 2
  %45 = load i32, ptr %44, align 8, !tbaa !10
  %46 = icmp slt i32 %43, %45
  br i1 %46, label %47, label %75

47:                                               ; preds = %42
  store i32 1, ptr %4, align 4, !tbaa !8
  br label %48

48:                                               ; preds = %68, %47
  %49 = load i32, ptr %4, align 4, !tbaa !8
  %50 = getelementptr inbounds nuw %"class.cv::ximgproc::EstimateCovariance", ptr %7, i32 0, i32 3
  %51 = load i32, ptr %50, align 4, !tbaa !16
  %52 = icmp slt i32 %49, %51
  br i1 %52, label %53, label %71

53:                                               ; preds = %48
  %54 = load i32, ptr %3, align 4, !tbaa !8
  %55 = getelementptr inbounds nuw %"struct.cv::ximgproc::EstimateCovariance::Combination", ptr %6, i32 0, i32 0
  store i32 %54, ptr %55, align 4, !tbaa !23
  %56 = getelementptr inbounds nuw %"struct.cv::ximgproc::EstimateCovariance::Combination", ptr %6, i32 0, i32 1
  store i32 0, ptr %56, align 4, !tbaa !25
  %57 = getelementptr inbounds nuw %"struct.cv::ximgproc::EstimateCovariance::Combination", ptr %6, i32 0, i32 2
  store i32 0, ptr %57, align 4, !tbaa !26
  %58 = load i32, ptr %4, align 4, !tbaa !8
  %59 = getelementptr inbounds nuw %"struct.cv::ximgproc::EstimateCovariance::Combination", ptr %6, i32 0, i32 3
  store i32 %58, ptr %59, align 4, !tbaa !27
  %60 = getelementptr inbounds nuw %"struct.cv::ximgproc::EstimateCovariance::Combination", ptr %6, i32 0, i32 4
  store i32 1, ptr %60, align 4, !tbaa !28
  %61 = load i32, ptr %5, align 4, !tbaa !8
  %62 = getelementptr inbounds nuw %"struct.cv::ximgproc::EstimateCovariance::Combination", ptr %6, i32 0, i32 5
  store i32 %61, ptr %62, align 4, !tbaa !29
  %63 = getelementptr inbounds nuw %"class.cv::ximgproc::EstimateCovariance", ptr %7, i32 0, i32 4
  %64 = load i32, ptr %5, align 4, !tbaa !8
  %65 = add nsw i32 %64, 1
  store i32 %65, ptr %5, align 4, !tbaa !8
  %66 = sext i32 %64 to i64
  %67 = call noundef nonnull align 4 dereferenceable(24) ptr @_ZNSt6vectorIN2cv8ximgproc18EstimateCovariance11CombinationESaIS3_EEixEm(ptr noundef nonnull align 8 dereferenceable(24) %63, i64 noundef %66) #3
  call void @llvm.memcpy.p0.p0.i64(ptr align 4 %67, ptr align 4 %6, i64 24, i1 false)
  br label %68

68:                                               ; preds = %53
  %69 = load i32, ptr %4, align 4, !tbaa !8
  %70 = add nsw i32 %69, 1
  store i32 %70, ptr %4, align 4, !tbaa !8
  br label %48, !llvm.loop !33

71:                                               ; preds = %48
  br label %72

72:                                               ; preds = %71
  %73 = load i32, ptr %3, align 4, !tbaa !8
  %74 = add nsw i32 %73, 1
  store i32 %74, ptr %3, align 4, !tbaa !8
  br label %42, !llvm.loop !34

75:                                               ; preds = %42
  call void @llvm.lifetime.end.p0(i64 24, ptr %6) #3
  call void @llvm.lifetime.end.p0(i64 4, ptr %5) #3
  call void @llvm.lifetime.end.p0(i64 4, ptr %4) #3
  call void @llvm.lifetime.end.p0(i64 4, ptr %3) #3
  ret void
}