; Function Attrs: mustprogress nofree norecurse nosync nounwind memory(write, argmem: readwrite, inaccessiblemem: none) uwtable
define hidden void @_ZN2cv8ximgproc18EstimateCovariance22buildCombinationsTableEv(ptr noundef nonnull readonly align 8 captures(none) dereferenceable(40) %0) local_unnamed_addr #8 align 2 {
  %2 = getelementptr inbounds nuw i8, ptr %0, i64 12
  %3 = load i32, ptr %2, align 4, !tbaa !13
  %4 = icmp sgt i32 %3, 0
  %5 = getelementptr inbounds nuw i8, ptr %0, i64 8
  br i1 %4, label %.preheader32.lr.ph, label %..preheader31_crit_edge

..preheader31_crit_edge:                          ; preds = %1
  %.pre53 = load i32, ptr %5, align 8, !tbaa !3
  br label %.preheader31

.preheader32.lr.ph:                               ; preds = %1
  %6 = getelementptr inbounds nuw i8, ptr %0, i64 16
  %7 = load i32, ptr %5, align 8, !tbaa !3
  %8 = icmp sgt i32 %7, 0
  br i1 %8, label %.preheader32, label %._crit_edge45

.preheader32:                                     ; preds = %.preheader32.lr.ph, %._crit_edge
  %9 = phi i32 [ %26, %._crit_edge ], [ %3, %.preheader32.lr.ph ]
  %10 = phi i32 [ %27, %._crit_edge ], [ %7, %.preheader32.lr.ph ]
  %.036 = phi i32 [ %.1.lcssa, %._crit_edge ], [ 0, %.preheader32.lr.ph ]
  %.02735 = phi i32 [ %28, %._crit_edge ], [ 0, %.preheader32.lr.ph ]
  %11 = icmp sgt i32 %10, 0
  br i1 %11, label %.lr.ph.preheader, label %._crit_edge

.lr.ph.preheader:                                 ; preds = %.preheader32
  %12 = sext i32 %.036 to i64
  br label %.lr.ph

.preheader31:                                     ; preds = %._crit_edge, %..preheader31_crit_edge
  %13 = phi i32 [ %3, %..preheader31_crit_edge ], [ %26, %._crit_edge ]
  %14 = phi i32 [ %.pre53, %..preheader31_crit_edge ], [ %27, %._crit_edge ]
  %.0.lcssa = phi i32 [ 0, %..preheader31_crit_edge ], [ %.1.lcssa, %._crit_edge ]
  %15 = getelementptr inbounds nuw i8, ptr %0, i64 8
  %16 = icmp sgt i32 %14, 1
  br i1 %16, label %.preheader.lr.ph, label %._crit_edge45

.preheader.lr.ph:                                 ; preds = %.preheader31
  %17 = getelementptr inbounds nuw i8, ptr %0, i64 16
  %18 = icmp sgt i32 %13, 1
  br i1 %18, label %.preheader, label %._crit_edge45

.lr.ph:                                           ; preds = %.lr.ph.preheader, %.lr.ph
  %indvars.iv = phi i64 [ %12, %.lr.ph.preheader ], [ %indvars.iv.next, %.lr.ph ]
  %.02933 = phi i32 [ 0, %.lr.ph.preheader ], [ %22, %.lr.ph ]
  %indvars.iv.next = add nsw i64 %indvars.iv, 1
  %19 = load ptr, ptr %6, align 8, !tbaa !14
  %20 = getelementptr inbounds nuw %"struct.cv::ximgproc::EstimateCovariance::Combination", ptr %19, i64 %indvars.iv
  store i32 0, ptr %20, align 4
  %.sroa.6.0..sroa_idx = getelementptr inbounds nuw i8, ptr %20, i64 4
  store i32 0, ptr %.sroa.6.0..sroa_idx, align 4
  %.sroa.8.0..sroa_idx = getelementptr inbounds nuw i8, ptr %20, i64 8
  store i32 %.02933, ptr %.sroa.8.0..sroa_idx, align 4
  %.sroa.10.0..sroa_idx = getelementptr inbounds nuw i8, ptr %20, i64 12
  store i32 %.02735, ptr %.sroa.10.0..sroa_idx, align 4
  %.sroa.12.0..sroa_idx = getelementptr inbounds nuw i8, ptr %20, i64 16
  store i32 0, ptr %.sroa.12.0..sroa_idx, align 4
  %.sroa.14.0..sroa_idx = getelementptr inbounds nuw i8, ptr %20, i64 20
  %21 = trunc nsw i64 %indvars.iv to i32
  store i32 %21, ptr %.sroa.14.0..sroa_idx, align 4
  %22 = add nuw nsw i32 %.02933, 1
  %23 = load i32, ptr %5, align 8, !tbaa !3
  %24 = icmp slt i32 %22, %23
  br i1 %24, label %.lr.ph, label %._crit_edge.loopexit, !llvm.loop !16

._crit_edge.loopexit:                             ; preds = %.lr.ph
  %25 = trunc nsw i64 %indvars.iv.next to i32
  %.pre = load i32, ptr %2, align 4, !tbaa !13
  br label %._crit_edge

._crit_edge:                                      ; preds = %._crit_edge.loopexit, %.preheader32
  %26 = phi i32 [ %9, %.preheader32 ], [ %.pre, %._crit_edge.loopexit ]
  %27 = phi i32 [ %10, %.preheader32 ], [ %23, %._crit_edge.loopexit ]
  %.1.lcssa = phi i32 [ %.036, %.preheader32 ], [ %25, %._crit_edge.loopexit ]
  %28 = add nuw nsw i32 %.02735, 1
  %29 = icmp slt i32 %28, %26
  br i1 %29, label %.preheader32, label %.preheader31, !llvm.loop !18

.preheader:                                       ; preds = %.preheader.lr.ph, %._crit_edge41
  %30 = phi i32 [ %41, %._crit_edge41 ], [ %14, %.preheader.lr.ph ]
  %31 = phi i32 [ %42, %._crit_edge41 ], [ %13, %.preheader.lr.ph ]
  %.244 = phi i32 [ %.3.lcssa, %._crit_edge41 ], [ %.0.lcssa, %.preheader.lr.ph ]
  %.13043 = phi i32 [ %43, %._crit_edge41 ], [ 1, %.preheader.lr.ph ]
  %32 = icmp sgt i32 %31, 1
  br i1 %32, label %.lr.ph40.preheader, label %._crit_edge41

.lr.ph40.preheader:                               ; preds = %.preheader
  %33 = sext i32 %.244 to i64
  br label %.lr.ph40

.lr.ph40:                                         ; preds = %.lr.ph40.preheader, %.lr.ph40
  %indvars.iv50 = phi i64 [ %33, %.lr.ph40.preheader ], [ %indvars.iv.next51, %.lr.ph40 ]
  %.12838 = phi i32 [ 1, %.lr.ph40.preheader ], [ %37, %.lr.ph40 ]
  %indvars.iv.next51 = add nsw i64 %indvars.iv50, 1
  %34 = load ptr, ptr %17, align 8, !tbaa !14
  %35 = getelementptr inbounds nuw %"struct.cv::ximgproc::EstimateCovariance::Combination", ptr %34, i64 %indvars.iv50
  store i32 %.13043, ptr %35, align 4
  %.sroa.6.0..sroa_idx2 = getelementptr inbounds nuw i8, ptr %35, i64 4
  store i32 0, ptr %.sroa.6.0..sroa_idx2, align 4
  %.sroa.8.0..sroa_idx4 = getelementptr inbounds nuw i8, ptr %35, i64 8
  store i32 0, ptr %.sroa.8.0..sroa_idx4, align 4
  %.sroa.10.0..sroa_idx6 = getelementptr inbounds nuw i8, ptr %35, i64 12
  store i32 %.12838, ptr %.sroa.10.0..sroa_idx6, align 4
  %.sroa.12.0..sroa_idx8 = getelementptr inbounds nuw i8, ptr %35, i64 16
  store i32 1, ptr %.sroa.12.0..sroa_idx8, align 4
  %.sroa.14.0..sroa_idx10 = getelementptr inbounds nuw i8, ptr %35, i64 20
  %36 = trunc nsw i64 %indvars.iv50 to i32
  store i32 %36, ptr %.sroa.14.0..sroa_idx10, align 4
  %37 = add nuw nsw i32 %.12838, 1
  %38 = load i32, ptr %2, align 4, !tbaa !13
  %39 = icmp slt i32 %37, %38
  br i1 %39, label %.lr.ph40, label %._crit_edge41.loopexit, !llvm.loop !20

._crit_edge41.loopexit:                           ; preds = %.lr.ph40
  %40 = trunc nsw i64 %indvars.iv.next51 to i32
  %.pre54 = load i32, ptr %15, align 8, !tbaa !3
  br label %._crit_edge41

._crit_edge41:                                    ; preds = %._crit_edge41.loopexit, %.preheader
  %41 = phi i32 [ %30, %.preheader ], [ %.pre54, %._crit_edge41.loopexit ]
  %42 = phi i32 [ %31, %.preheader ], [ %38, %._crit_edge41.loopexit ]
  %.3.lcssa = phi i32 [ %.244, %.preheader ], [ %40, %._crit_edge41.loopexit ]
  %43 = add nuw nsw i32 %.13043, 1
  %44 = icmp slt i32 %43, %41
  br i1 %44, label %.preheader, label %._crit_edge45, !llvm.loop !21

._crit_edge45:                                    ; preds = %._crit_edge41, %.preheader32.lr.ph, %.preheader.lr.ph, %.preheader31
  ret void
}